libmysqlcppconn8.so.1:_ZN6mysqlx5DbDoc3endEv
libmysqlcppconn8.so.1:_ZN6mysqlx5DbDoc5beginEv
libmysqlcppconn8.so.1:_ZN6mysqlx5DbDoc8IteratordeEv
libmysqlcppconn8.so.1:_ZN6mysqlx5DbDoc8IteratorppEv
libmysqlcppconn8.so.1:_ZN6mysqlx5DbDocC1ERKNSt7__cxx1112basic_stringIcSt11char_traitsIcESaIcEEE
libmysqlcppconn8.so.1:_ZN6mysqlx5DbDocC2ERKNSt7__cxx1112basic_stringIcSt11char_traitsIcESaIcEEE
libmysqlcppconn8.so.1:_ZN6mysqlx6common13Settings_impl12set_from_uriERKNSt7__cxx1112basic_stringIcSt11char_traitsIcESaIcEEE
libmysqlcppconn8.so.1:_ZN6mysqlx6common13Settings_impl15get_data_sourceERN3cdk2ds12Multi_sourceE
libmysqlcppconn8.so.1:_ZN6mysqlx6common13Settings_impl5clearEv
libmysqlcppconn8.so.1:_ZN6mysqlx6common5Value6Access11process_valERKS1_RN3cdk15Value_processorE
libmysqlcppconn8.so.1:_ZN6mysqlx6common5Value6Access7processEN6parser11Parser_mode5valueERKS1_RN3cdk3api13Any_processorINS8_14Expr_processorEEE
libmysqlcppconn8.so.1:_ZN6mysqlx6string4Impl7to_utf8B5cxx11ERKS0_
libmysqlcppconn8.so.1:_ZN6mysqlx6string4Impl9from_utf8ERS0_RKNSt7__cxx1112basic_stringIcSt11char_traitsIcESaIcEEE
libmysqlcppconn8.so.1:_ZN6mysqlx8internal10Row_detail11ensure_implEv
libmysqlcppconn8.so.1:_ZN6mysqlx8internal10Row_detail11process_oneEPSt4pairIPNS1_4ImplEmERKNS_5ValueE
libmysqlcppconn8.so.1:_ZN6mysqlx8internal10Row_detail7get_valEm
libmysqlcppconn8.so.1:_ZN6mysqlx8internal10Row_detail8get_implEv
libmysqlcppconn8.so.1:_ZN6mysqlx8internal12Crud_factory6mk_addERNS_10CollectionE
libmysqlcppconn8.so.1:_ZN6mysqlx8internal12Crud_factory6mk_sqlERNS_7SessionERKNS_6stringE
libmysqlcppconn8.so.1:_ZN6mysqlx8internal12Crud_factory7mk_findERNS_10CollectionE
libmysqlcppconn8.so.1:_ZN6mysqlx8internal12Crud_factory7mk_findERNS_10CollectionERKNS_6stringE
libmysqlcppconn8.so.1:_ZN6mysqlx8internal12Crud_factory9mk_insertERNS_5TableE
libmysqlcppconn8.so.1:_ZN6mysqlx8internal12Crud_factory9mk_modifyERNS_10CollectionERKNS_6stringE
libmysqlcppconn8.so.1:_ZN6mysqlx8internal12Crud_factory9mk_removeERNS_10CollectionERKNS_6stringE
libmysqlcppconn8.so.1:_ZN6mysqlx8internal12Crud_factory9mk_removeERNS_5TableE
libmysqlcppconn8.so.1:_ZN6mysqlx8internal12Crud_factory9mk_selectERNS_5TableE
libmysqlcppconn8.so.1:_ZN6mysqlx8internal12Crud_factory9mk_updateERNS_5TableE
libmysqlcppconn8.so.1:_ZN6mysqlx8internal13Result_detail11get_warningEm
libmysqlcppconn8.so.1:_ZN6mysqlx8internal13Result_detail11next_resultEv
libmysqlcppconn8.so.1:_ZN6mysqlx8internal13Result_detail8get_implEv
libmysqlcppconn8.so.1:_ZN6mysqlx8internal13Result_detailC1ERNS_6common11Result_initE
libmysqlcppconn8.so.1:_ZN6mysqlx8internal13Result_detailC2ERNS_6common11Result_initE
libmysqlcppconn8.so.1:_ZN6mysqlx8internal13Result_detailD0Ev
libmysqlcppconn8.so.1:_ZN6mysqlx8internal13Result_detailD1Ev
libmysqlcppconn8.so.1:_ZN6mysqlx8internal13Result_detailD2Ev
libmysqlcppconn8.so.1:_ZN6mysqlx8internal13Result_detailaSEOS1_
libmysqlcppconn8.so.1:_ZN6mysqlx8internal13Schema_detail14Collection_src12iterator_getEv
libmysqlcppconn8.so.1:_ZN6mysqlx8internal13Schema_detail15drop_collectionERKNS_6stringE
libmysqlcppconn8.so.1:_ZN6mysqlx8internal13Schema_detail17create_collectionERKNS_6stringEb
libmysqlcppconn8.so.1:_ZN6mysqlx8internal13Schema_detail8Name_srcC1ERKNS_6SchemaENS1_8Obj_typeERKNS_6stringE
libmysqlcppconn8.so.1:_ZN6mysqlx8internal13Schema_detail8Name_srcC2ERKNS_6SchemaENS1_8Obj_typeERKNS_6stringE
libmysqlcppconn8.so.1:_ZN6mysqlx8internal13Schema_detail9Table_src12iterator_getEv
libmysqlcppconn8.so.1:_ZN6mysqlx8internal14Columns_detailINS_6ColumnEE4initERKNS0_13Result_detail4ImplE
libmysqlcppconn8.so.1:_ZN6mysqlx8internal14Session_detail10Schema_src12iterator_getEv
libmysqlcppconn8.so.1:_ZN6mysqlx8internal14Session_detail11drop_schemaERKNS_6stringE
libmysqlcppconn8.so.1:_ZN6mysqlx8internal14Session_detail13create_schemaERKNS_6stringEb
libmysqlcppconn8.so.1:_ZN6mysqlx8internal14Session_detail13savepoint_setERKNS_6stringE
libmysqlcppconn8.so.1:_ZN6mysqlx8internal14Session_detail15prepare_for_cmdEv
libmysqlcppconn8.so.1:_ZN6mysqlx8internal14Session_detail16savepoint_removeERKNS_6stringE
libmysqlcppconn8.so.1:_ZN6mysqlx8internal14Session_detail17start_transactionEv
libmysqlcppconn8.so.1:_ZN6mysqlx8internal14Session_detail23get_default_schema_nameB5cxx11Ev
libmysqlcppconn8.so.1:_ZN6mysqlx8internal14Session_detail5closeEv
libmysqlcppconn8.so.1:_ZN6mysqlx8internal14Session_detail6commitEv
libmysqlcppconn8.so.1:_ZN6mysqlx8internal14Session_detail8Name_srcC1ERKNS_7SessionERKNS_6stringE
libmysqlcppconn8.so.1:_ZN6mysqlx8internal14Session_detail8Name_srcC2ERKNS_7SessionERKNS_6stringE
libmysqlcppconn8.so.1:_ZN6mysqlx8internal14Session_detail8rollbackERKNS_6stringE
libmysqlcppconn8.so.1:_ZN6mysqlx8internal14Session_detailC1ERNS_6common13Settings_implE
libmysqlcppconn8.so.1:_ZN6mysqlx8internal14Session_detailC2ERNS_6common13Settings_implE
libmysqlcppconn8.so.1:_ZN6mysqlx8internal15Settings_detailINS0_15Settings_traitsEE6do_setEONSt7__cxx114listISt4pairINS_6common13Settings_impl6OptionENS7_5ValueEESaISB_EEE
libmysqlcppconn8.so.1:_ZN6mysqlx8internal17Collection_detail10index_dropERKNS_6stringE
libmysqlcppconn8.so.1:_ZN6mysqlx8internal17Collection_detail12index_createERKNS_6stringEONS_5ValueE
libmysqlcppconn8.so.1:_ZN6mysqlx8internal17Collection_detail18add_or_replace_oneERKNS_6stringEONS_5ValueEb
libmysqlcppconn8.so.1:_ZN6mysqlx8internal17Doc_result_detail13iterator_nextEv
libmysqlcppconn8.so.1:_ZN6mysqlx8internal17Doc_result_detail5countEv
libmysqlcppconn8.so.1:_ZN6mysqlx8internal17Row_result_detailINS_7ColumnsEE13iterator_nextEv
libmysqlcppconn8.so.1:_ZN6mysqlx8internal17Row_result_detailINS_7ColumnsEE9row_countEv
libmysqlcppconn8.so.1:_ZN6mysqlx8internal17Row_result_detailINS_7ColumnsEEC1ERNS_6common11Result_initE
libmysqlcppconn8.so.1:_ZN6mysqlx8internal17Row_result_detailINS_7ColumnsEEC2ERNS_6common11Result_initE
libmysqlcppconn8.so.1:_ZN6mysqlx8internal9Query_src12iterator_getEv
libmysqlcppconn8.so.1:_ZN6mysqlx8internal9Query_src13iterator_nextEv
libmysqlcppconn8.so.1:_ZN6mysqlx8internal9Query_srcD0Ev
libmysqlcppconn8.so.1:_ZN6mysqlx8internal9Query_srcD1Ev
libmysqlcppconn8.so.1:_ZN6mysqlx8internal9Query_srcD2Ev
libmysqlcppconn8.so.1:_ZNK6mysqlx5DbDoc5printERSo
libmysqlcppconn8.so.1:_ZNK6mysqlx5DbDoc8IteratoreqERKS1_
libmysqlcppconn8.so.1:_ZNK6mysqlx5DbDoc8get_jsonEv
libmysqlcppconn8.so.1:_ZNK6mysqlx5DbDoc8hasFieldERKNS_5FieldE
libmysqlcppconn8.so.1:_ZNK6mysqlx5DbDocixERKNS_5FieldE
libmysqlcppconn8.so.1:_ZNK6mysqlx6common5Value10get_stringB5cxx11Ev
libmysqlcppconn8.so.1:_ZNK6mysqlx6common5Value11get_wstringB5cxx11Ev
libmysqlcppconn8.so.1:_ZNK6mysqlx6common5Value5printERSo
libmysqlcppconn8.so.1:_ZNK6mysqlx8internal10Row_detail9col_countEv
libmysqlcppconn8.so.1:_ZNK6mysqlx8internal10Row_detail9get_bytesEm
libmysqlcppconn8.so.1:_ZNK6mysqlx8internal13Column_detail10get_lengthEv
libmysqlcppconn8.so.1:_ZNK6mysqlx8internal13Column_detail11get_charsetEv
libmysqlcppconn8.so.1:_ZNK6mysqlx8internal13Column_detail12get_decimalsEv
libmysqlcppconn8.so.1:_ZNK6mysqlx8internal13Column_detail13get_collationEv
libmysqlcppconn8.so.1:_ZNK6mysqlx8internal13Column_detail14get_table_nameEv
libmysqlcppconn8.so.1:_ZNK6mysqlx8internal13Column_detail15get_schema_nameEv
libmysqlcppconn8.so.1:_ZNK6mysqlx8internal13Column_detail15get_table_labelEv
libmysqlcppconn8.so.1:_ZNK6mysqlx8internal13Column_detail5printERSo
libmysqlcppconn8.so.1:_ZNK6mysqlx8internal13Column_detail8get_nameEv
libmysqlcppconn8.so.1:_ZNK6mysqlx8internal13Column_detail8get_typeEv
libmysqlcppconn8.so.1:_ZNK6mysqlx8internal13Column_detail9get_labelEv
libmysqlcppconn8.so.1:_ZNK6mysqlx8internal13Column_detail9is_paddedEv
libmysqlcppconn8.so.1:_ZNK6mysqlx8internal13Column_detail9is_signedEv
libmysqlcppconn8.so.1:_ZNK6mysqlx8internal13Result_detail12check_resultEv
libmysqlcppconn8.so.1:_ZNK6mysqlx8internal13Result_detail17get_affected_rowsEv
libmysqlcppconn8.so.1:_ZNK6mysqlx8internal13Result_detail17get_generated_idsB5cxx11Ev
libmysqlcppconn8.so.1:_ZNK6mysqlx8internal13Result_detail17get_warning_countEv
libmysqlcppconn8.so.1:_ZNK6mysqlx8internal13Result_detail18get_auto_incrementEv
libmysqlcppconn8.so.1:_ZNK6mysqlx8internal13Result_detail8has_dataEv
libmysqlcppconn8.so.1:_ZNK6mysqlx8internal17Row_result_detailINS_7ColumnsEE10get_columnEm
libmysqlcppconn8.so.1:_ZNK6mysqlx8internal17Row_result_detailINS_7ColumnsEE11get_columnsEv
libmysqlcppconn8.so.1:_ZNK6mysqlx8internal17Row_result_detailINS_7ColumnsEE9col_countEv
libmysqlcppconn8.so.1:_ZTv0_n24_NK6mysqlx6common5Value5printERSo
libmysqlcppconn8.so.1:_ZTv0_n24_NK6mysqlx8internal13Column_detail5printERSo
libmysqlcppconn8.so.1:mysqlx_collection_add
libmysqlcppconn8.so.1:mysqlx_collection_add_new
libmysqlcppconn8.so.1:mysqlx_collection_create
libmysqlcppconn8.so.1:mysqlx_collection_create_index
libmysqlcppconn8.so.1:mysqlx_collection_drop
libmysqlcppconn8.so.1:mysqlx_collection_drop_index
libmysqlcppconn8.so.1:mysqlx_collection_find
libmysqlcppconn8.so.1:mysqlx_collection_find_new
libmysqlcppconn8.so.1:mysqlx_collection_modify_new
libmysqlcppconn8.so.1:mysqlx_collection_modify_patch
libmysqlcppconn8.so.1:mysqlx_collection_modify_set
libmysqlcppconn8.so.1:mysqlx_collection_modify_unset
libmysqlcppconn8.so.1:mysqlx_collection_remove
libmysqlcppconn8.so.1:mysqlx_collection_remove_new
libmysqlcppconn8.so.1:mysqlx_column_get_catalog
libmysqlcppconn8.so.1:mysqlx_column_get_collation
libmysqlcppconn8.so.1:mysqlx_column_get_count
libmysqlcppconn8.so.1:mysqlx_column_get_length
libmysqlcppconn8.so.1:mysqlx_column_get_name
libmysqlcppconn8.so.1:mysqlx_column_get_original_name
libmysqlcppconn8.so.1:mysqlx_column_get_original_table
libmysqlcppconn8.so.1:mysqlx_column_get_precision
libmysqlcppconn8.so.1:mysqlx_column_get_schema
libmysqlcppconn8.so.1:mysqlx_column_get_table
libmysqlcppconn8.so.1:mysqlx_column_get_type
libmysqlcppconn8.so.1:mysqlx_error
libmysqlcppconn8.so.1:mysqlx_error_message
libmysqlcppconn8.so.1:mysqlx_error_num
libmysqlcppconn8.so.1:mysqlx_execute
libmysqlcppconn8.so.1:mysqlx_fetch_generated_id
libmysqlcppconn8.so.1:mysqlx_free
libmysqlcppconn8.so.1:mysqlx_free_options
libmysqlcppconn8.so.1:mysqlx_get_affected_count
libmysqlcppconn8.so.1:mysqlx_get_auto_increment_value
libmysqlcppconn8.so.1:mysqlx_get_bytes
libmysqlcppconn8.so.1:mysqlx_get_collection
libmysqlcppconn8.so.1:mysqlx_get_collections
libmysqlcppconn8.so.1:mysqlx_get_double
libmysqlcppconn8.so.1:mysqlx_get_float
libmysqlcppconn8.so.1:mysqlx_get_schema
libmysqlcppconn8.so.1:mysqlx_get_schemas
libmysqlcppconn8.so.1:mysqlx_get_session
libmysqlcppconn8.so.1:mysqlx_get_session_from_options
libmysqlcppconn8.so.1:mysqlx_get_session_from_url
libmysqlcppconn8.so.1:mysqlx_get_sint
libmysqlcppconn8.so.1:mysqlx_get_table
libmysqlcppconn8.so.1:mysqlx_get_tables
libmysqlcppconn8.so.1:mysqlx_get_uint
libmysqlcppconn8.so.1:mysqlx_json_fetch_one
libmysqlcppconn8.so.1:mysqlx_next_result
libmysqlcppconn8.so.1:mysqlx_result_free
libmysqlcppconn8.so.1:mysqlx_result_next_warning
libmysqlcppconn8.so.1:mysqlx_result_warning_count
libmysqlcppconn8.so.1:mysqlx_rollback_to
libmysqlcppconn8.so.1:mysqlx_row_fetch_one
libmysqlcppconn8.so.1:mysqlx_savepoint_release
libmysqlcppconn8.so.1:mysqlx_savepoint_set
libmysqlcppconn8.so.1:mysqlx_schema_create
libmysqlcppconn8.so.1:mysqlx_schema_drop
libmysqlcppconn8.so.1:mysqlx_session_close
libmysqlcppconn8.so.1:mysqlx_session_option_get
libmysqlcppconn8.so.1:mysqlx_session_option_set
libmysqlcppconn8.so.1:mysqlx_session_options_new
libmysqlcppconn8.so.1:mysqlx_session_valid
libmysqlcppconn8.so.1:mysqlx_set_add_document
libmysqlcppconn8.so.1:mysqlx_set_find_projection
libmysqlcppconn8.so.1:mysqlx_set_group_by
libmysqlcppconn8.so.1:mysqlx_set_having
libmysqlcppconn8.so.1:mysqlx_set_insert_columns
libmysqlcppconn8.so.1:mysqlx_set_insert_row
libmysqlcppconn8.so.1:mysqlx_set_items
libmysqlcppconn8.so.1:mysqlx_set_limit_and_offset
libmysqlcppconn8.so.1:mysqlx_set_modify_array_append
libmysqlcppconn8.so.1:mysqlx_set_modify_array_delete
libmysqlcppconn8.so.1:mysqlx_set_modify_array_insert
libmysqlcppconn8.so.1:mysqlx_set_modify_patch
libmysqlcppconn8.so.1:mysqlx_set_modify_set
libmysqlcppconn8.so.1:mysqlx_set_modify_unset
libmysqlcppconn8.so.1:mysqlx_set_order_by
libmysqlcppconn8.so.1:mysqlx_set_row_locking
libmysqlcppconn8.so.1:mysqlx_set_update_values
libmysqlcppconn8.so.1:mysqlx_set_where
libmysqlcppconn8.so.1:mysqlx_sql
libmysqlcppconn8.so.1:mysqlx_sql_new
libmysqlcppconn8.so.1:mysqlx_sql_param
libmysqlcppconn8.so.1:mysqlx_stmt_bind
libmysqlcppconn8.so.1:mysqlx_store_result
libmysqlcppconn8.so.1:mysqlx_table_delete
libmysqlcppconn8.so.1:mysqlx_table_delete_new
libmysqlcppconn8.so.1:mysqlx_table_insert
libmysqlcppconn8.so.1:mysqlx_table_insert_new
libmysqlcppconn8.so.1:mysqlx_table_select
libmysqlcppconn8.so.1:mysqlx_table_select_limit
libmysqlcppconn8.so.1:mysqlx_table_select_new
libmysqlcppconn8.so.1:mysqlx_table_update
libmysqlcppconn8.so.1:mysqlx_table_update_new
libmysqlcppconn8.so.1:mysqlx_transaction_begin
libmysqlcppconn8.so.1:mysqlx_transaction_commit
libmysqlcppconn8.so.1:mysqlx_transaction_rollback
